; Function Attrs: mustprogress uwtable
define dso_local noundef range(i32 -1, 1) i32 @_ZNK24btInverseDynamicsBullet313MultiBodyTree13MultiBodyImpl23getBodySecondMassMomentEiPNS_5mat33E(ptr noundef nonnull readonly align 8 captures(none) dereferenceable(400) %0, i32 noundef %1, ptr noundef writeonly captures(none) %2) local_unnamed_addr #0 align 2 {
  %4 = icmp sgt i32 %1, -1
  %5 = load i32, ptr %0, align 8
  %.not = icmp slt i32 %1, %5
  %or.cond = select i1 %4, i1 %.not, i1 false
  br i1 %or.cond, label %8, label %6

6:                                                ; preds = %3
  tail call void (ptr, ...) @b3OutputErrorMessageVarArgsInternal(ptr noundef nonnull @.str.16, ptr noundef nonnull @.str.17, i32 noundef 1223)
  %7 = load i32, ptr %0, align 8, !tbaa !4
  tail call void (ptr, ...) @b3OutputErrorMessageVarArgsInternal(ptr noundef nonnull @.str.30, i32 noundef %1, i32 noundef %7)
  br label %17

8:                                                ; preds = %3
  %9 = getelementptr inbounds nuw i8, ptr %0, i64 40
  %10 = load ptr, ptr %9, align 8, !tbaa !34
  %11 = zext nneg i32 %1 to i64
  %12 = getelementptr inbounds nuw %"struct.btInverseDynamicsBullet3::RigidBody", ptr %10, i64 %11, i32 2
  tail call void @llvm.memcpy.p0.p0.i64(ptr noundef nonnull align 4 dereferenceable(48) %2, ptr noundef nonnull align 4 dereferenceable(48) %12, i64 16, i1 false), !tbaa.struct !82
  %13 = getelementptr inbounds nuw i8, ptr %12, i64 16
  %14 = getelementptr inbounds nuw i8, ptr %2, i64 16
  tail call void @llvm.memcpy.p0.p0.i64(ptr noundef nonnull align 4 dereferenceable(16) %14, ptr noundef nonnull align 4 dereferenceable(16) %13, i64 16, i1 false), !tbaa.struct !82
  %15 = getelementptr inbounds nuw i8, ptr %12, i64 32
  %16 = getelementptr inbounds nuw i8, ptr %2, i64 32
  tail call void @llvm.memcpy.p0.p0.i64(ptr noundef nonnull align 4 dereferenceable(16) %16, ptr noundef nonnull align 4 dereferenceable(16) %15, i64 16, i1 false), !tbaa.struct !82
  br label %17

17:                                               ; preds = %8, %6
  %.0 = phi i32 [ -1, %6 ], [ 0, %8 ]
  ret i32 %.0
}